; Function Attrs: mustprogress uwtable
define hidden noundef ptr @_ZN10duckdb_re23DFA10StateSaver7RestoreEv(ptr noundef nonnull readonly align 8 captures(none) dereferenceable(40) %0) local_unnamed_addr #1 align 2 personality ptr @__gxx_personality_v0 {
  %2 = alloca %"class.duckdb_re2::MutexLock", align 8
  %3 = alloca %class.LogMessage, align 8
  %4 = getelementptr inbounds nuw i8, ptr %0, i64 24
  %5 = load i8, ptr %4, align 8, !tbaa !164, !range !117, !noundef !118
  %6 = trunc nuw i8 %5 to i1
  br i1 %6, label %7, label %10

7:                                                ; preds = %1
  %8 = getelementptr inbounds nuw i8, ptr %0, i64 32
  %9 = load ptr, ptr %8, align 8, !tbaa !165
  br label %65

10:                                               ; preds = %1
  call void @llvm.lifetime.start.p0(i64 8, ptr nonnull %2) #20
  %11 = load ptr, ptr %0, align 8, !tbaa !162
  %12 = getelementptr inbounds nuw i8, ptr %11, i64 16
  store ptr %12, ptr %2, align 8, !tbaa !150
  %13 = tail call i32 @pthread_rwlock_wrlock(ptr noundef nonnull align 8 dereferenceable(56) %12) #20
  %.not.i.i = icmp eq i32 %13, 0
  br i1 %.not.i.i, label %_ZN10duckdb_re29MutexLockC2EPNS_5MutexE.exit, label %14

14:                                               ; preds = %10
  %15 = tail call ptr @__cxa_allocate_exception(i64 16) #20
  invoke void @_ZNSt13runtime_errorC1EPKc(ptr noundef nonnull align 8 dereferenceable(16) %15, ptr noundef nonnull @.str.18)
          to label %16 unwind label %17

16:                                               ; preds = %14
  tail call void @__cxa_throw(ptr nonnull %15, ptr nonnull @_ZTISt13runtime_error, ptr nonnull @_ZNSt13runtime_errorD1Ev) #21
  unreachable

common.resume:                                    ; preds = %64, %17
  %common.resume.op = phi { ptr, i32 } [ %18, %17 ], [ %.pn.pn, %64 ]
  resume { ptr, i32 } %common.resume.op

17:                                               ; preds = %14
  %18 = landingpad { ptr, i32 }
          cleanup
  tail call void @__cxa_free_exception(ptr nonnull %15) #20
  br label %common.resume

_ZN10duckdb_re29MutexLockC2EPNS_5MutexE.exit:     ; preds = %10
  %19 = load ptr, ptr %0, align 8, !tbaa !162
  %20 = getelementptr inbounds nuw i8, ptr %0, i64 8
  %21 = load ptr, ptr %20, align 8, !tbaa !168
  %22 = getelementptr inbounds nuw i8, ptr %0, i64 16
  %23 = load i32, ptr %22, align 8, !tbaa !167
  %24 = getelementptr inbounds nuw i8, ptr %0, i64 20
  %25 = load i32, ptr %24, align 4, !tbaa !166
  %26 = invoke noundef ptr @_ZN10duckdb_re23DFA11CachedStateEPiij(ptr noundef nonnull align 8 dereferenceable(296) %19, ptr noundef %21, i32 noundef %23, i32 noundef %25)
          to label %27 unwind label %47

27:                                               ; preds = %_ZN10duckdb_re29MutexLockC2EPNS_5MutexE.exit
  %28 = icmp eq ptr %26, null
  br i1 %28, label %29, label %54

29:                                               ; preds = %27
  call void @llvm.lifetime.start.p0(i64 384, ptr nonnull %3) #20
  store i8 0, ptr %3, align 8, !tbaa !134
  %30 = getelementptr inbounds nuw i8, ptr %3, i64 8
  invoke void @_ZNSt7__cxx1119basic_ostringstreamIcSt11char_traitsIcESaIcEEC1Ev(ptr noundef nonnull align 8 dereferenceable(112) %30)
          to label %_ZN10LogMessageC2EPKci.exit unwind label %49

_ZN10LogMessageC2EPKci.exit:                      ; preds = %29
  %31 = invoke noundef nonnull align 8 dereferenceable(8) ptr @_ZSt16__ostream_insertIcSt11char_traitsIcEERSt13basic_ostreamIT_T0_ES6_PKS3_l(ptr noundef nonnull align 8 dereferenceable(8) %30, ptr noundef nonnull @.str.15, i64 noundef 35)
          to label %_ZStlsISt11char_traitsIcEERSt13basic_ostreamIcT_ES5_PKc.exit unwind label %51

_ZStlsISt11char_traitsIcEERSt13basic_ostreamIcT_ES5_PKc.exit: ; preds = %_ZN10LogMessageC2EPKci.exit
  %32 = load ptr, ptr @_ZTTNSt7__cxx1119basic_ostringstreamIcSt11char_traitsIcESaIcEEE, align 8
  store ptr %32, ptr %30, align 8, !tbaa !143
  %33 = load ptr, ptr getelementptr inbounds nuw (i8, ptr @_ZTTNSt7__cxx1119basic_ostringstreamIcSt11char_traitsIcESaIcEEE, i64 24), align 8
  %34 = getelementptr i8, ptr %32, i64 -24
  %35 = load i64, ptr %34, align 8
  %36 = getelementptr inbounds i8, ptr %30, i64 %35
  store ptr %33, ptr %36, align 8, !tbaa !143
  %37 = getelementptr inbounds nuw i8, ptr %3, i64 16
  store ptr getelementptr inbounds nuw inrange(-16, 112) (i8, ptr @_ZTVNSt7__cxx1115basic_stringbufIcSt11char_traitsIcESaIcEEE, i64 16), ptr %37, align 8, !tbaa !143
  %38 = getelementptr inbounds nuw i8, ptr %3, i64 88
  %39 = load ptr, ptr %38, align 8, !tbaa !105
  %40 = getelementptr inbounds nuw i8, ptr %3, i64 104
  %41 = icmp eq ptr %39, %40
  br i1 %41, label %_ZNKSt7__cxx1112basic_stringIcSt11char_traitsIcESaIcEE11_M_is_localEv.exit.thread.i.i.i.i.i.i, label %_ZNKSt7__cxx1112basic_stringIcSt11char_traitsIcESaIcEE11_M_is_localEv.exit.i.i.i.i.i.i

_ZNKSt7__cxx1112basic_stringIcSt11char_traitsIcESaIcEE11_M_is_localEv.exit.thread.i.i.i.i.i.i: ; preds = %_ZStlsISt11char_traitsIcEERSt13basic_ostreamIcT_ES5_PKc.exit
  %42 = getelementptr inbounds nuw i8, ptr %3, i64 96
  %43 = load i64, ptr %42, align 8, !tbaa !102
  %44 = icmp ult i64 %43, 16
  call void @llvm.assume(i1 %44)
  br label %_ZN10LogMessageD2Ev.exit

_ZNKSt7__cxx1112basic_stringIcSt11char_traitsIcESaIcEE11_M_is_localEv.exit.i.i.i.i.i.i: ; preds = %_ZStlsISt11char_traitsIcEERSt13basic_ostreamIcT_ES5_PKc.exit
  call void @_ZdlPv(ptr noundef %39) #23
  br label %_ZN10LogMessageD2Ev.exit

_ZN10LogMessageD2Ev.exit:                         ; preds = %_ZNKSt7__cxx1112basic_stringIcSt11char_traitsIcESaIcEE11_M_is_localEv.exit.thread.i.i.i.i.i.i, %_ZNKSt7__cxx1112basic_stringIcSt11char_traitsIcESaIcEE11_M_is_localEv.exit.i.i.i.i.i.i
  store ptr getelementptr inbounds nuw inrange(-16, 112) (i8, ptr @_ZTVSt15basic_streambufIcSt11char_traitsIcEE, i64 16), ptr %37, align 8, !tbaa !143
  %45 = getelementptr inbounds nuw i8, ptr %3, i64 72
  call void @_ZNSt6localeD1Ev(ptr noundef nonnull align 8 dereferenceable(8) %45) #20
  %46 = getelementptr inbounds nuw i8, ptr %3, i64 120
  call void @_ZNSt8ios_baseD2Ev(ptr noundef nonnull align 8 dereferenceable(264) %46) #20
  call void @llvm.lifetime.end.p0(i64 384, ptr nonnull %3) #20
  br label %54

47:                                               ; preds = %_ZN10duckdb_re29MutexLockC2EPNS_5MutexE.exit
  %48 = landingpad { ptr, i32 }
          cleanup
  br label %64

49:                                               ; preds = %29
  %50 = landingpad { ptr, i32 }
          cleanup
  br label %53

51:                                               ; preds = %_ZN10LogMessageC2EPKci.exit
  %52 = landingpad { ptr, i32 }
          cleanup
  call void @_ZN10LogMessageD2Ev(ptr noundef nonnull align 8 dereferenceable(384) %3) #20
  br label %53

53:                                               ; preds = %51, %49
  %.pn = phi { ptr, i32 } [ %52, %51 ], [ %50, %49 ]
  call void @llvm.lifetime.end.p0(i64 384, ptr nonnull %3) #20
  br label %64

54:                                               ; preds = %_ZN10LogMessageD2Ev.exit, %27
  %55 = call i32 @pthread_rwlock_unlock(ptr noundef nonnull align 8 dereferenceable(56) %12) #20
  %.not.i.i10 = icmp eq i32 %55, 0
  br i1 %.not.i.i10, label %_ZN10duckdb_re29MutexLockD2Ev.exit, label %56

56:                                               ; preds = %54
  %57 = call ptr @__cxa_allocate_exception(i64 16) #20
  invoke void @_ZNSt13runtime_errorC1EPKc(ptr noundef nonnull align 8 dereferenceable(16) %57, ptr noundef nonnull @.str.18)
          to label %58 unwind label %59

58:                                               ; preds = %56
  invoke void @__cxa_throw(ptr nonnull %57, ptr nonnull @_ZTISt13runtime_error, ptr nonnull @_ZNSt13runtime_errorD1Ev) #21
          to label %.noexc.i unwind label %61

.noexc.i:                                         ; preds = %58
  unreachable

59:                                               ; preds = %56
  %60 = landingpad { ptr, i32 }
          catch ptr null
  call void @__cxa_free_exception(ptr nonnull %57) #20
  br label %.body.i

61:                                               ; preds = %58
  %62 = landingpad { ptr, i32 }
          catch ptr null
  br label %.body.i

.body.i:                                          ; preds = %61, %59
  %eh.lpad-body.i = phi { ptr, i32 } [ %62, %61 ], [ %60, %59 ]
  %63 = extractvalue { ptr, i32 } %eh.lpad-body.i, 0
  call void @__clang_call_terminate(ptr %63) #24
  unreachable

_ZN10duckdb_re29MutexLockD2Ev.exit:               ; preds = %54
  call void @llvm.lifetime.end.p0(i64 8, ptr nonnull %2) #20
  br label %65

64:                                               ; preds = %53, %47
  %.pn.pn = phi { ptr, i32 } [ %.pn, %53 ], [ %48, %47 ]
  call void @_ZN10duckdb_re29MutexLockD2Ev(ptr noundef nonnull align 8 dereferenceable(8) %2) #20
  call void @llvm.lifetime.end.p0(i64 8, ptr nonnull %2) #20
  br label %common.resume

65:                                               ; preds = %_ZN10duckdb_re29MutexLockD2Ev.exit, %7
  %.07 = phi ptr [ %9, %7 ], [ %26, %_ZN10duckdb_re29MutexLockD2Ev.exit ]
  ret ptr %.07
}